; Function Attrs: mustprogress uwtable
define hidden void @_ZN3sls12bv_lookahead20finalize_bool_valuesEv(ptr noundef nonnull readonly align 8 captures(none) dereferenceable(400) %0) local_unnamed_addr #3 align 2 {
  %2 = getelementptr inbounds nuw i8, ptr %0, i64 32
  %3 = load ptr, ptr %2, align 8, !tbaa !92
  %4 = getelementptr inbounds nuw i8, ptr %3, i64 8
  %5 = load ptr, ptr %4, align 8, !tbaa !101
  %6 = load ptr, ptr %5, align 8, !tbaa !127
  %7 = getelementptr inbounds nuw i8, ptr %6, i64 88
  %8 = load ptr, ptr %7, align 8
  %9 = tail call noundef i32 %8(ptr noundef nonnull align 8 dereferenceable(8) %5)
  %.not10 = icmp eq i32 %9, 0
  br i1 %.not10, label %._crit_edge, label %.lr.ph

.lr.ph:                                           ; preds = %1
  %10 = getelementptr inbounds nuw i8, ptr %0, i64 24
  %11 = load ptr, ptr %2, align 8, !tbaa !92
  %12 = getelementptr inbounds nuw i8, ptr %11, i64 80
  %13 = load ptr, ptr %12, align 8, !tbaa !132
  %14 = icmp eq ptr %13, null
  br i1 %14, label %._crit_edge, label %.lr.ph.split.preheader

.lr.ph.split.preheader:                           ; preds = %.lr.ph
  %15 = add i32 %9, -1
  %16 = zext i32 %15 to i64
  br label %.lr.ph.split

._crit_edge:                                      ; preds = %_ZN3sls7context4atomEj.exit.thread, %.lr.ph, %1
  ret void

.lr.ph.split:                                     ; preds = %.lr.ph.split.preheader, %_ZN3sls7context4atomEj.exit.thread
  %indvars.iv = phi i64 [ %16, %.lr.ph.split.preheader ], [ %indvars.iv.next, %_ZN3sls7context4atomEj.exit.thread ]
  %17 = load ptr, ptr %2, align 8, !tbaa !92
  %18 = getelementptr inbounds nuw i8, ptr %17, i64 80
  %19 = load ptr, ptr %18, align 8, !tbaa !132
  %20 = icmp eq ptr %19, null
  br i1 %20, label %_ZN3sls7context4atomEj.exit.thread, label %_ZNK6vectorIP4exprLb0EjE3getEjRKS1_.exit.i.i

_ZNK6vectorIP4exprLb0EjE3getEjRKS1_.exit.i.i:     ; preds = %.lr.ph.split
  %21 = getelementptr inbounds i8, ptr %19, i64 -4
  %22 = load i32, ptr %21, align 4, !tbaa !133
  %23 = zext i32 %22 to i64
  %.not.i.i.i = icmp ult i64 %indvars.iv, %23
  br i1 %.not.i.i.i, label %_ZN3sls7context4atomEj.exit, label %_ZN3sls7context4atomEj.exit.thread

_ZN3sls7context4atomEj.exit:                      ; preds = %_ZNK6vectorIP4exprLb0EjE3getEjRKS1_.exit.i.i
  %24 = getelementptr inbounds nuw ptr, ptr %19, i64 %indvars.iv
  %.then.val.i.i = load ptr, ptr %24, align 8, !tbaa !134
  %.not7 = icmp eq ptr %.then.val.i.i, null
  br i1 %.not7, label %_ZN3sls7context4atomEj.exit.thread, label %25, !llvm.loop !135

25:                                               ; preds = %_ZN3sls7context4atomEj.exit
  %26 = load ptr, ptr %10, align 8, !tbaa !96
  %27 = tail call noundef zeroext i1 @_ZNK3sls7bv_eval14get_bool_valueEP4expr(ptr noundef nonnull align 8 dereferenceable(865) %26, ptr noundef nonnull %.then.val.i.i)
  %28 = load ptr, ptr %2, align 8, !tbaa !92
  %29 = getelementptr inbounds nuw i8, ptr %28, i64 8
  %30 = load ptr, ptr %29, align 8, !tbaa !101
  %31 = trunc nuw i64 %indvars.iv to i32
  %32 = shl i32 %31, 1
  %33 = load ptr, ptr %30, align 8, !tbaa !127
  %34 = getelementptr inbounds nuw i8, ptr %33, i64 80
  %35 = load ptr, ptr %34, align 8
  %36 = tail call noundef zeroext i1 %35(ptr noundef nonnull align 8 dereferenceable(8) %30, i32 %32)
  %37 = xor i1 %27, %36
  br i1 %37, label %38, label %_ZN3sls7context4atomEj.exit.thread

38:                                               ; preds = %25
  %39 = load ptr, ptr %2, align 8, !tbaa !92
  %40 = getelementptr inbounds nuw i8, ptr %39, i64 8
  %41 = load ptr, ptr %40, align 8, !tbaa !101
  %42 = load ptr, ptr %41, align 8, !tbaa !127
  %43 = getelementptr inbounds nuw i8, ptr %42, i64 40
  %44 = load ptr, ptr %43, align 8
  tail call void %44(ptr noundef nonnull align 8 dereferenceable(8) %41, i32 noundef %31)
  br label %_ZN3sls7context4atomEj.exit.thread

_ZN3sls7context4atomEj.exit.thread:               ; preds = %.lr.ph.split, %_ZNK6vectorIP4exprLb0EjE3getEjRKS1_.exit.i.i, %25, %38, %_ZN3sls7context4atomEj.exit
  %indvars.iv.next = add nsw i64 %indvars.iv, -1
  %.not = icmp eq i64 %indvars.iv, 0
  br i1 %.not, label %._crit_edge, label %.lr.ph.split, !llvm.loop !137
}